target datalayout = "e-m:e-p270:32:32-p271:32:32-p272:64:64-i64:64-i128:128-f80:128-n8:16:32:64-S128"
target triple = "x86_64-pc-linux-gnu"

%struct._object = type { i64, ptr }

; Function Attrs: inlinehint mustprogress nounwind uwtable
define internal void @_ZL10_Py_INCREFP7_object(ptr noundef %0) #9 {
  %2 = alloca ptr, align 8
  store ptr %0, ptr %2, align 8
  %3 = load ptr, ptr %2, align 8
  %4 = getelementptr inbounds nuw %struct._object, ptr %3, i32 0, i32 0
  %5 = load i64, ptr %4, align 8
  %6 = add nsw i64 %5, 1
  store i64 %6, ptr %4, align 8
  ret void
}

; Function Attrs: inlinehint mustprogress uwtable
define internal void @_ZL11_Py_XINCREFP7_object(ptr noundef %0) #13 {
  %2 = alloca ptr, align 8
  store ptr %0, ptr %2, align 8
  %3 = load ptr, ptr %2, align 8
  %4 = icmp ne ptr %3, null
  br i1 %4, label %5, label %7

5:                                                ; preds = %1
  %6 = load ptr, ptr %2, align 8
  call void @_ZL10_Py_INCREFP7_object(ptr noundef %6)
  br label %7

7:                                                ; preds = %5, %1
  ret void
}

; Function Attrs: mustprogress nounwind uwtable
define noundef ptr @_ZN8nanobind6detail7getattrEP7_objectS2_S2_(ptr noundef %0, ptr noundef %1, ptr noundef %2) #4 personality ptr @__gxx_personality_v0 {
  %4 = alloca ptr, align 8
  %5 = alloca ptr, align 8
  %6 = alloca ptr, align 8
  %7 = alloca ptr, align 8
  %8 = alloca ptr, align 8
  %9 = alloca i32, align 4
  %10 = alloca i32, align 4
  store ptr %0, ptr %5, align 8
  store ptr %1, ptr %6, align 8
  store ptr %2, ptr %7, align 8
  call void @llvm.lifetime.start.p0(i64 8, ptr %8) #20
  call void @llvm.lifetime.start.p0(i64 4, ptr %9) #20
  %11 = load ptr, ptr %5, align 8
  %12 = load ptr, ptr %6, align 8
  %13 = invoke i32 @_PyObject_LookupAttr(ptr noundef %11, ptr noundef %12, ptr noundef %8)
          to label %14 unwind label %31

14:                                               ; preds = %3
  store i32 %13, ptr %9, align 4
  %15 = load i32, ptr %9, align 4
  %16 = icmp eq i32 %15, 1
  br i1 %16, label %17, label %19

17:                                               ; preds = %14
  %18 = load ptr, ptr %8, align 8
  store ptr %18, ptr %4, align 8
  store i32 1, ptr %10, align 4
  br label %29

19:                                               ; preds = %14
  %20 = load i32, ptr %9, align 4
  %21 = icmp slt i32 %20, 0
  br i1 %21, label %22, label %24

22:                                               ; preds = %19
  invoke void @PyErr_Clear()
          to label %23 unwind label %31

23:                                               ; preds = %22
  br label %24

24:                                               ; preds = %23, %19
  br label %25

25:                                               ; preds = %24
  %26 = load ptr, ptr %7, align 8
  invoke void @_ZL11_Py_XINCREFP7_object(ptr noundef %26)
          to label %27 unwind label %31

27:                                               ; preds = %25
  %28 = load ptr, ptr %7, align 8
  store ptr %28, ptr %4, align 8
  store i32 1, ptr %10, align 4
  br label %29

29:                                               ; preds = %27, %17
  call void @llvm.lifetime.end.p0(i64 4, ptr %9) #20
  call void @llvm.lifetime.end.p0(i64 8, ptr %8) #20
  %30 = load ptr, ptr %4, align 8
  ret ptr %30

31:                                               ; preds = %25, %22, %3
  %32 = landingpad { ptr, i32 }
          catch ptr null
  %33 = extractvalue { ptr, i32 } %32, 0
  call void @__clang_call_terminate(ptr %33) #22
  unreachable
}