; Function Attrs: mustprogress nounwind uwtable
define noundef ptr @_ZN8nanobind6detail7getattrEP7_objectS2_S2_(ptr noundef %0, ptr noundef %1, ptr noundef %2) local_unnamed_addr #9 personality ptr @__gxx_personality_v0 {
  %4 = alloca ptr, align 8
  call void @llvm.lifetime.start.p0(i64 8, ptr nonnull %4) #27
  %5 = invoke i32 @_PyObject_LookupAttr(ptr noundef %0, ptr noundef %1, ptr noundef nonnull %4)
          to label %6 unwind label %17

6:                                                ; preds = %3
  %7 = icmp eq i32 %5, 1
  br i1 %7, label %8, label %10

8:                                                ; preds = %6
  %9 = load ptr, ptr %4, align 8
  br label %_ZL11_Py_XINCREFP7_object.exit

10:                                               ; preds = %6
  %11 = icmp slt i32 %5, 0
  br i1 %11, label %12, label %13

12:                                               ; preds = %10
  invoke void @PyErr_Clear()
          to label %13 unwind label %17

13:                                               ; preds = %10, %12
  %.not.i = icmp eq ptr %2, null
  br i1 %.not.i, label %_ZL11_Py_XINCREFP7_object.exit, label %14

14:                                               ; preds = %13
  %15 = load i64, ptr %2, align 8
  %16 = add nsw i64 %15, 1
  store i64 %16, ptr %2, align 8
  br label %_ZL11_Py_XINCREFP7_object.exit

_ZL11_Py_XINCREFP7_object.exit:                   ; preds = %14, %13, %8
  %.0 = phi ptr [ %9, %8 ], [ null, %13 ], [ %2, %14 ]
  call void @llvm.lifetime.end.p0(i64 8, ptr nonnull %4) #27
  ret ptr %.0

17:                                               ; preds = %12, %3
  %18 = landingpad { ptr, i32 }
          catch ptr null
  %19 = extractvalue { ptr, i32 } %18, 0
  call void @__clang_call_terminate(ptr %19) #29
  unreachable
}